; Function Attrs: mustprogress uwtable
define hidden noundef ptr @_ZN15seq_decl_plugin10mk_str_funEijPKP4sortS1_i(ptr noundef nonnull align 8 dereferenceable(96) %0, i32 noundef %1, i32 noundef %2, ptr noundef %3, ptr noundef %4, i32 noundef %5) local_unnamed_addr #3 align 2 personality ptr @__gxx_personality_v0 {
  %7 = alloca %class.obj_ref, align 8
  %8 = alloca %struct.func_decl_info, align 8
  %9 = getelementptr inbounds nuw i8, ptr %0, i64 8
  %10 = load ptr, ptr %9, align 8, !tbaa !3
  call void @llvm.lifetime.start.p0(i64 16, ptr nonnull %7) #26
  store ptr null, ptr %7, align 8, !tbaa !66
  %11 = getelementptr inbounds nuw i8, ptr %7, i64 8
  store ptr %10, ptr %11, align 8, !tbaa !153
  %12 = getelementptr inbounds nuw i8, ptr %0, i64 24
  %13 = load ptr, ptr %12, align 8, !tbaa !28
  %14 = zext i32 %1 to i64
  %15 = getelementptr inbounds nuw ptr, ptr %13, i64 %14
  %16 = load ptr, ptr %15, align 8, !tbaa !35
  invoke void @_ZN15seq_decl_plugin5matchERNS_4psigEjPKP4sortS3_R7obj_refIS2_11ast_managerE(ptr noundef nonnull align 8 dereferenceable(96) %0, ptr noundef nonnull align 8 dereferenceable(48) %16, i32 noundef %2, ptr noundef %3, ptr noundef %4, ptr noundef nonnull align 8 dereferenceable(16) %7)
          to label %17 unwind label %57

17:                                               ; preds = %6
  %18 = load ptr, ptr %12, align 8, !tbaa !28
  %19 = getelementptr inbounds nuw ptr, ptr %18, i64 %14
  %20 = load ptr, ptr %19, align 8, !tbaa !35
  %21 = load ptr, ptr %7, align 8, !tbaa !66
  call void @llvm.lifetime.start.p0(i64 24, ptr nonnull %8) #26
  %22 = getelementptr inbounds nuw i8, ptr %0, i64 16
  %23 = load i32, ptr %22, align 8, !tbaa !10
  invoke void @_ZN14func_decl_infoC1EiijPK9parameter(ptr noundef nonnull align 8 dereferenceable(19) %8, i32 noundef %23, i32 noundef %5, i32 noundef 0, ptr noundef null)
          to label %24 unwind label %59

24:                                               ; preds = %17
  %25 = load i32, ptr %8, align 8, !tbaa !44
  %26 = icmp eq i32 %25, -1
  br i1 %26, label %27, label %_ZNK14func_decl_info7is_nullEv.exit.thread.i

27:                                               ; preds = %24
  %28 = getelementptr inbounds nuw i8, ptr %8, i64 17
  %29 = load i16, ptr %28, align 1
  %30 = trunc i16 %29 to i1
  %31 = and i16 %29, 506
  %32 = icmp ne i16 %31, 0
  %or.cond.not.i = or i1 %32, %30
  br i1 %or.cond.not.i, label %_ZNK14func_decl_info7is_nullEv.exit.thread.i, label %33

_ZNK14func_decl_info7is_nullEv.exit.thread.i:     ; preds = %27, %24
  br label %33

33:                                               ; preds = %_ZNK14func_decl_info7is_nullEv.exit.thread.i, %27
  %.sink.i = phi ptr [ %8, %_ZNK14func_decl_info7is_nullEv.exit.thread.i ], [ null, %27 ]
  %34 = invoke noundef ptr @_ZN11ast_manager12mk_func_declERK6symboljPKP4sortS4_P14func_decl_info(ptr noundef nonnull align 8 dereferenceable(976) %10, ptr noundef nonnull align 8 dereferenceable(8) %20, i32 noundef %2, ptr noundef %3, ptr noundef %21, ptr noundef %.sink.i)
          to label %_ZN11ast_manager12mk_func_declERK6symboljPKP4sortS4_RK14func_decl_info.exit unwind label %61

_ZN11ast_manager12mk_func_declERK6symboljPKP4sortS4_RK14func_decl_info.exit: ; preds = %33
  %35 = getelementptr inbounds nuw i8, ptr %8, i64 8
  %36 = load ptr, ptr %35, align 8, !tbaa !49
  %.not.i.i.i = icmp eq ptr %36, null
  br i1 %.not.i.i.i, label %_ZN9decl_infoD2Ev.exit, label %_ZNK6vectorI9parameterLb1EjE4sizeEv.exit.i.i.i.i

_ZNK6vectorI9parameterLb1EjE4sizeEv.exit.i.i.i.i: ; preds = %_ZN11ast_manager12mk_func_declERK6symboljPKP4sortS4_RK14func_decl_info.exit
  %37 = getelementptr inbounds i8, ptr %36, i64 -4
  %38 = load i32, ptr %37, align 4, !tbaa !29
  %.not5.i.i.i.i.i.i.i = icmp eq i32 %38, 0
  br i1 %.not5.i.i.i.i.i.i.i, label %_ZN6vectorI9parameterLb1EjE16destroy_elementsEv.exit.i.i.i, label %.lr.ph.i.i.i.i.i.i.i

.lr.ph.i.i.i.i.i.i.i:                             ; preds = %_ZNK6vectorI9parameterLb1EjE4sizeEv.exit.i.i.i.i, %.lr.ph.i.i.i.i.i.i.i
  %.07.i.i.i.i.i.i.i = phi i32 [ %40, %.lr.ph.i.i.i.i.i.i.i ], [ %38, %_ZNK6vectorI9parameterLb1EjE4sizeEv.exit.i.i.i.i ]
  %.046.i.i.i.i.i.i.i = phi ptr [ %39, %.lr.ph.i.i.i.i.i.i.i ], [ %36, %_ZNK6vectorI9parameterLb1EjE4sizeEv.exit.i.i.i.i ]
  call void @_ZN9parameterD1Ev(ptr noundef nonnull align 8 dereferenceable(16) %.046.i.i.i.i.i.i.i) #26
  %39 = getelementptr inbounds nuw i8, ptr %.046.i.i.i.i.i.i.i, i64 16
  %40 = add i32 %.07.i.i.i.i.i.i.i, -1
  %.not.i.i.i.i.i.i.i = icmp eq i32 %40, 0
  br i1 %.not.i.i.i.i.i.i.i, label %_ZN6vectorI9parameterLb1EjE16destroy_elementsEv.exit.loopexit.i.i.i, label %.lr.ph.i.i.i.i.i.i.i, !llvm.loop !79

_ZN6vectorI9parameterLb1EjE16destroy_elementsEv.exit.loopexit.i.i.i: ; preds = %.lr.ph.i.i.i.i.i.i.i
  %.pre.i.i.i = load ptr, ptr %35, align 8, !tbaa !49
  br label %_ZN6vectorI9parameterLb1EjE16destroy_elementsEv.exit.i.i.i

_ZN6vectorI9parameterLb1EjE16destroy_elementsEv.exit.i.i.i: ; preds = %_ZN6vectorI9parameterLb1EjE16destroy_elementsEv.exit.loopexit.i.i.i, %_ZNK6vectorI9parameterLb1EjE4sizeEv.exit.i.i.i.i
  %41 = phi ptr [ %.pre.i.i.i, %_ZN6vectorI9parameterLb1EjE16destroy_elementsEv.exit.loopexit.i.i.i ], [ %36, %_ZNK6vectorI9parameterLb1EjE4sizeEv.exit.i.i.i.i ]
  %42 = getelementptr inbounds i8, ptr %41, i64 -8
  invoke void @_ZN6memory10deallocateEPv(ptr noundef nonnull %42)
          to label %_ZN6vectorI9parameterLb1EjE16destroy_elementsEv.exit.i.i.i._ZN9decl_infoD2Ev.exit_crit_edge unwind label %43

_ZN6vectorI9parameterLb1EjE16destroy_elementsEv.exit.i.i.i._ZN9decl_infoD2Ev.exit_crit_edge: ; preds = %_ZN6vectorI9parameterLb1EjE16destroy_elementsEv.exit.i.i.i
  %.pre = load ptr, ptr %7, align 8, !tbaa !66
  br label %_ZN9decl_infoD2Ev.exit

43:                                               ; preds = %_ZN6vectorI9parameterLb1EjE16destroy_elementsEv.exit.i.i.i
  %44 = landingpad { ptr, i32 }
          catch ptr null
  %45 = extractvalue { ptr, i32 } %44, 0
  call void @__clang_call_terminate(ptr %45) #27
  unreachable

_ZN9decl_infoD2Ev.exit:                           ; preds = %_ZN6vectorI9parameterLb1EjE16destroy_elementsEv.exit.i.i.i._ZN9decl_infoD2Ev.exit_crit_edge, %_ZN11ast_manager12mk_func_declERK6symboljPKP4sortS4_RK14func_decl_info.exit
  %46 = phi ptr [ %.pre, %_ZN6vectorI9parameterLb1EjE16destroy_elementsEv.exit.i.i.i._ZN9decl_infoD2Ev.exit_crit_edge ], [ %21, %_ZN11ast_manager12mk_func_declERK6symboljPKP4sortS4_RK14func_decl_info.exit ]
  call void @llvm.lifetime.end.p0(i64 24, ptr nonnull %8) #26
  %.not.i.i = icmp eq ptr %46, null
  br i1 %.not.i.i, label %_ZN7obj_refI4sort11ast_managerED2Ev.exit, label %47

47:                                               ; preds = %_ZN9decl_infoD2Ev.exit
  %48 = load ptr, ptr %11, align 8, !tbaa !69
  %49 = getelementptr inbounds nuw i8, ptr %46, i64 8
  %50 = load i32, ptr %49, align 4, !tbaa !31
  %51 = add i32 %50, -1
  store i32 %51, ptr %49, align 4, !tbaa !31
  %52 = icmp eq i32 %51, 0
  br i1 %52, label %53, label %_ZN7obj_refI4sort11ast_managerED2Ev.exit

53:                                               ; preds = %47
  invoke void @_ZN11ast_manager11delete_nodeEP3ast(ptr noundef nonnull align 8 dereferenceable(976) %48, ptr noundef nonnull %46)
          to label %_ZN7obj_refI4sort11ast_managerED2Ev.exit unwind label %54

54:                                               ; preds = %53
  %55 = landingpad { ptr, i32 }
          catch ptr null
  %56 = extractvalue { ptr, i32 } %55, 0
  call void @__clang_call_terminate(ptr %56) #27
  unreachable

_ZN7obj_refI4sort11ast_managerED2Ev.exit:         ; preds = %_ZN9decl_infoD2Ev.exit, %47, %53
  call void @llvm.lifetime.end.p0(i64 16, ptr nonnull %7) #26
  ret ptr %34

57:                                               ; preds = %6
  %58 = landingpad { ptr, i32 }
          cleanup
  br label %64

59:                                               ; preds = %17
  %60 = landingpad { ptr, i32 }
          cleanup
  br label %63

61:                                               ; preds = %33
  %62 = landingpad { ptr, i32 }
          cleanup
  call void @_ZN9decl_infoD2Ev(ptr noundef nonnull align 8 dereferenceable(19) %8) #26
  br label %63

63:                                               ; preds = %61, %59
  %.pn = phi { ptr, i32 } [ %62, %61 ], [ %60, %59 ]
  call void @llvm.lifetime.end.p0(i64 24, ptr nonnull %8) #26
  br label %64

64:                                               ; preds = %63, %57
  %.pn.pn = phi { ptr, i32 } [ %.pn, %63 ], [ %58, %57 ]
  call void @_ZN7obj_refI4sort11ast_managerED2Ev(ptr noundef nonnull align 8 dereferenceable(16) %7) #26
  call void @llvm.lifetime.end.p0(i64 16, ptr nonnull %7) #26
  resume { ptr, i32 } %.pn.pn
}